; Function Attrs: mustprogress nofree norecurse nosync nounwind willreturn memory(argmem: read) uwtable
define dso_local i64 @sdsAllocSize(ptr nocapture noundef readonly %s) local_unnamed_addr #12 {
entry:
  %arrayidx.i = getelementptr inbounds i8, ptr %s, i64 -1
  %0 = load i8, ptr %arrayidx.i, align 1
  %conv.i = zext i8 %0 to i32
  %and.i = and i32 %conv.i, 7
  switch i32 %and.i, label %sdsalloc.exit [
    i32 0, label %sw.bb.i
    i32 1, label %sw.bb3.i
    i32 2, label %sw.bb5.i
    i32 3, label %sw.bb9.i
    i32 4, label %sw.bb13.i
  ]

sw.bb.i:                                          ; preds = %entry
  %shr.i = lshr i32 %conv.i, 3
  %conv2.i = zext nneg i32 %shr.i to i64
  br label %sdsalloc.exit

sw.bb3.i:                                         ; preds = %entry
  %alloc.i = getelementptr inbounds i8, ptr %s, i64 -2
  %1 = load i8, ptr %alloc.i, align 1
  %conv4.i = zext i8 %1 to i64
  br label %sdsalloc.exit

sw.bb5.i:                                         ; preds = %entry
  %alloc7.i = getelementptr inbounds i8, ptr %s, i64 -3
  %2 = load i16, ptr %alloc7.i, align 1
  %conv8.i = zext i16 %2 to i64
  br label %sdsalloc.exit

sw.bb9.i:                                         ; preds = %entry
  %alloc11.i = getelementptr inbounds i8, ptr %s, i64 -5
  %3 = load i32, ptr %alloc11.i, align 1
  %conv12.i = zext i32 %3 to i64
  br label %sdsalloc.exit

sw.bb13.i:                                        ; preds = %entry
  %alloc15.i = getelementptr inbounds i8, ptr %s, i64 -9
  %4 = load i64, ptr %alloc15.i, align 1
  br label %sdsalloc.exit

sdsalloc.exit:                                    ; preds = %entry, %sw.bb.i, %sw.bb3.i, %sw.bb5.i, %sw.bb9.i, %sw.bb13.i
  %retval.0.i = phi i64 [ %4, %sw.bb13.i ], [ %conv12.i, %sw.bb9.i ], [ %conv8.i, %sw.bb5.i ], [ %conv4.i, %sw.bb3.i ], [ %conv2.i, %sw.bb.i ], [ 0, %entry ]
  %5 = and i8 %0, 7
  %6 = icmp ult i8 %5, 5
  br i1 %6, label %switch.lookup, label %sdsHdrSize.exit

switch.lookup:                                    ; preds = %sdsalloc.exit
  %7 = zext nneg i8 %5 to i64
  %switch.gep = getelementptr inbounds [5 x i64], ptr @switch.table.sdsAllocSize, i64 0, i64 %7
  %switch.load = load i64, ptr %switch.gep, align 8
  br label %sdsHdrSize.exit

sdsHdrSize.exit:                                  ; preds = %sdsalloc.exit, %switch.lookup
  %retval.0.i2 = phi i64 [ %switch.load, %switch.lookup ], [ 0, %sdsalloc.exit ]
  %add = add i64 %retval.0.i, 1
  %add2 = add i64 %add, %retval.0.i2
  ret i64 %add2
}